; Function Attrs: nounwind uwtable
define ptr @l_Lean_Server_lookupLspRequestHandler(ptr noundef %0, ptr noundef %1) local_unnamed_addr #1 {
  %3 = load ptr, ptr @l_Lean_Server_registerLspRequestHandler___lambda__3___closed__1, align 8, !tbaa !9
  %4 = tail call ptr @lean_st_ref_get(ptr noundef %3, ptr noundef %1) #6
  %.val = load i32, ptr %4, align 4, !tbaa !4
  %5 = icmp eq i32 %.val, 1
  %6 = getelementptr inbounds nuw i8, ptr %4, i64 8
  %7 = load ptr, ptr %6, align 8, !tbaa !9
  br i1 %5, label %8, label %11

8:                                                ; preds = %2
  %9 = tail call i64 @lean_string_hash(ptr noundef %0) #6
  %10 = tail call ptr @l_Lean_PersistentHashMap_findAux___at_Lean_Server_lookupLspRequestHandler___spec__2(ptr noundef %7, i64 noundef %9, ptr noundef %0)
  store ptr %10, ptr %6, align 8, !tbaa !9
  br label %47

11:                                               ; preds = %2
  %12 = getelementptr inbounds nuw i8, ptr %4, i64 16
  %13 = load ptr, ptr %12, align 8, !tbaa !9
  %14 = ptrtoint ptr %13 to i64
  %15 = and i64 %14, 1
  %.not = icmp eq i64 %15, 0
  br i1 %.not, label %16, label %lean_inc.exit22

16:                                               ; preds = %11
  %.val.i = load i32, ptr %13, align 4, !tbaa !4
  %17 = icmp sgt i32 %.val.i, 0
  br i1 %17, label %18, label %20, !prof !11

18:                                               ; preds = %16
  %19 = add nuw i32 %.val.i, 1
  store i32 %19, ptr %13, align 4, !tbaa !4
  br label %lean_inc.exit22

20:                                               ; preds = %16
  %.not.i23 = icmp eq i32 %.val.i, 0
  br i1 %.not.i23, label %lean_inc.exit22, label %21

21:                                               ; preds = %20
  tail call void @lean_inc_ref_cold(ptr noundef nonnull %13) #6
  br label %lean_inc.exit22

lean_inc.exit22:                                  ; preds = %21, %20, %18, %11
  %22 = ptrtoint ptr %7 to i64
  %23 = and i64 %22, 1
  %.not27 = icmp eq i64 %23, 0
  br i1 %.not27, label %24, label %lean_inc.exit

24:                                               ; preds = %lean_inc.exit22
  %.val.i24 = load i32, ptr %7, align 4, !tbaa !4
  %25 = icmp sgt i32 %.val.i24, 0
  br i1 %25, label %26, label %28, !prof !11

26:                                               ; preds = %24
  %27 = add nuw i32 %.val.i24, 1
  store i32 %27, ptr %7, align 4, !tbaa !4
  br label %lean_inc.exit

28:                                               ; preds = %24
  %.not.i25 = icmp eq i32 %.val.i24, 0
  br i1 %.not.i25, label %lean_inc.exit, label %29

29:                                               ; preds = %28
  tail call void @lean_inc_ref_cold(ptr noundef nonnull %7) #6
  br label %lean_inc.exit

lean_inc.exit:                                    ; preds = %29, %28, %26, %lean_inc.exit22
  %30 = ptrtoint ptr %4 to i64
  %31 = and i64 %30, 1
  %.not28 = icmp eq i64 %31, 0
  br i1 %.not28, label %32, label %lean_dec.exit

32:                                               ; preds = %lean_inc.exit
  %33 = load i32, ptr %4, align 4, !tbaa !4
  %34 = icmp sgt i32 %33, 1
  br i1 %34, label %35, label %37, !prof !11

35:                                               ; preds = %32
  %36 = add nsw i32 %33, -1
  store i32 %36, ptr %4, align 4, !tbaa !4
  br label %lean_dec.exit

37:                                               ; preds = %32
  %.not.i = icmp eq i32 %33, 0
  br i1 %.not.i, label %lean_dec.exit, label %38

38:                                               ; preds = %37
  tail call void @lean_dec_ref_cold(ptr noundef nonnull %4) #6
  br label %lean_dec.exit

lean_dec.exit:                                    ; preds = %38, %37, %35, %lean_inc.exit
  %39 = tail call i64 @lean_string_hash(ptr noundef %0) #6
  %40 = tail call ptr @l_Lean_PersistentHashMap_findAux___at_Lean_Server_lookupLspRequestHandler___spec__2(ptr noundef %7, i64 noundef %39, ptr noundef %0)
  tail call void @lean_inc_heartbeat() #6
  %41 = tail call noalias ptr @mi_malloc_small(i64 noundef 24) #6
  %42 = icmp eq ptr %41, null
  br i1 %42, label %43, label %lean_alloc_ctor.exit

43:                                               ; preds = %lean_dec.exit
  tail call void @lean_internal_panic_out_of_memory() #7
  unreachable

lean_alloc_ctor.exit:                             ; preds = %lean_dec.exit
  %44 = getelementptr inbounds nuw i8, ptr %41, i64 4
  store i32 1, ptr %41, align 4, !tbaa !4
  store i32 131096, ptr %44, align 4
  %45 = getelementptr inbounds nuw i8, ptr %41, i64 8
  store ptr %40, ptr %45, align 8, !tbaa !9
  %46 = getelementptr inbounds nuw i8, ptr %41, i64 16
  store ptr %13, ptr %46, align 8, !tbaa !9
  br label %47

47:                                               ; preds = %lean_alloc_ctor.exit, %8
  %.0 = phi ptr [ %4, %8 ], [ %41, %lean_alloc_ctor.exit ]
  ret ptr %.0
}